; Function Attrs: nounwind uwtable
define internal range(i64 0, 256) i64 @H5T__ref_obj_disk_getsize(ptr noundef %0, ptr readnone captures(none) %1, i64 %2, ptr readnone captures(none) %3, ptr readnone captures(none) %4) #0 {
  %6 = load i8, ptr @H5T_init_g, align 1, !tbaa !3, !range !7, !noundef !8
  %7 = trunc nuw i8 %6 to i1
  %8 = load i8, ptr @H5_libterm_g, align 1, !range !7
  %9 = trunc nuw i8 %8 to i1
  %10 = xor i1 %9, true
  %11 = select i1 %7, i1 true, i1 %10
  br i1 %11, label %12, label %22, !prof !9

12:                                               ; preds = %5
  %13 = tail call ptr @H5VL_object_data(ptr noundef %0) #11
  %14 = icmp eq ptr %13, null
  br i1 %14, label %15, label %19

15:                                               ; preds = %12
  %16 = load i64, ptr @H5E_ARGS_g, align 8, !tbaa !26
  %17 = load i64, ptr @H5E_BADTYPE_g, align 8, !tbaa !26
  %18 = tail call i32 (ptr, ptr, i32, i64, i64, ptr, ...) @H5E_printf_stack(ptr noundef nonnull @.str, ptr noundef nonnull @__func__.H5T__ref_obj_disk_getsize, i32 noundef 1113, i64 noundef %16, i64 noundef %17, ptr noundef nonnull @.str.4) #11
  br label %22

19:                                               ; preds = %12
  %20 = tail call zeroext i8 @H5F_sizeof_addr(ptr noundef nonnull %13) #11
  %21 = zext i8 %20 to i64
  br label %22

22:                                               ; preds = %15, %19, %5
  %.0 = phi i64 [ 0, %15 ], [ %21, %19 ], [ 0, %5 ]
  ret i64 %.0
}